target datalayout = "e-m:e-p270:32:32-p271:32:32-p272:64:64-i64:64-i128:128-f80:128-n8:16:32:64-S128"
target triple = "x86_64-pc-linux-gnu"

%struct._ir_ctx = type { ptr, i32, i32, i32, i32, i32, i32, i32, i32, i32, i32, %struct._ir_insn, ptr, ptr, ptr, i32, i32, i32, ptr, ptr, ptr, ptr, ptr, ptr, i32, i32, i64, i32, i32, i32, i64, i32, i32, i32, i32, ptr, ptr, ptr, ptr, ptr, ptr, %union.anon.13, ptr, i32, i32, i32, i64, i32, i32, i32, ptr, ptr, ptr, ptr, %struct._ir_strtab, [61 x i32], [14 x i32] }
%struct._ir_insn = type { %struct.anon, %union.anon.5 }
%struct.anon = type { %union.anon, %union.anon.4 }
%union.anon = type { i32 }
%union.anon.4 = type { i32 }
%union.anon.5 = type { %union._ir_val }
%union._ir_val = type { double }
%union.anon.13 = type { ptr }
%struct._ir_strtab = type { ptr, i32, i32, i32, i32, ptr, i32, i32 }
%struct.anon.0 = type { %union.anon.1, %union.anon.3 }
%union.anon.1 = type { i16 }
%union.anon.3 = type { i16 }
%struct.anon.2 = type { i8, i8 }
%struct._ir_use_list = type { i32, i32 }

@ir_op_flags = external constant [108 x i32], align 16

; Function Attrs: nounwind uwtable
define internal zeroext i1 @ir_is_dead_load(ptr noundef %0, i32 noundef %1) #0 {
  %3 = alloca i1, align 1
  %4 = alloca ptr, align 8
  %5 = alloca i32, align 4
  %6 = alloca i32, align 4
  %7 = alloca i32, align 4
  store ptr %0, ptr %4, align 8, !tbaa !4
  store i32 %1, ptr %5, align 4, !tbaa !33
  %8 = load ptr, ptr %4, align 8, !tbaa !4
  %9 = getelementptr inbounds nuw %struct._ir_ctx, ptr %8, i32 0, i32 13
  %10 = load ptr, ptr %9, align 8, !tbaa !47
  %11 = load i32, ptr %5, align 4, !tbaa !33
  %12 = sext i32 %11 to i64
  %13 = getelementptr inbounds %struct._ir_use_list, ptr %10, i64 %12
  %14 = getelementptr inbounds nuw %struct._ir_use_list, ptr %13, i32 0, i32 1
  %15 = load i32, ptr %14, align 4, !tbaa !48
  %16 = icmp eq i32 %15, 1
  br i1 %16, label %17, label %56

17:                                               ; preds = %2
  call void @llvm.lifetime.start.p0(i64 4, ptr %6) #10
  %18 = load ptr, ptr %4, align 8, !tbaa !4
  %19 = getelementptr inbounds nuw %struct._ir_ctx, ptr %18, i32 0, i32 0
  %20 = load ptr, ptr %19, align 8, !tbaa !45
  %21 = load i32, ptr %5, align 4, !tbaa !33
  %22 = sext i32 %21 to i64
  %23 = getelementptr inbounds %struct._ir_insn, ptr %20, i64 %22
  %24 = getelementptr inbounds nuw %struct._ir_insn, ptr %23, i32 0, i32 0
  %25 = getelementptr inbounds nuw %struct.anon, ptr %24, i32 0, i32 0
  %26 = getelementptr inbounds nuw %struct.anon.0, ptr %25, i32 0, i32 0
  %27 = getelementptr inbounds nuw %struct.anon.2, ptr %26, i32 0, i32 0
  %28 = load i8, ptr %27, align 8, !tbaa !46
  %29 = zext i8 %28 to i64
  %30 = getelementptr inbounds nuw [108 x i32], ptr @ir_op_flags, i64 0, i64 %29
  %31 = load i32, ptr %30, align 4, !tbaa !33
  store i32 %31, ptr %6, align 4, !tbaa !33
  %32 = load i32, ptr %6, align 4, !tbaa !33
  %33 = and i32 %32, 1216
  %34 = icmp eq i32 %33, 1024
  br i1 %34, label %35, label %36

35:                                               ; preds = %17
  store i1 true, ptr %3, align 1
  store i32 1, ptr %7, align 4
  br label %53

36:                                               ; preds = %17
  %37 = load ptr, ptr %4, align 8, !tbaa !4
  %38 = getelementptr inbounds nuw %struct._ir_ctx, ptr %37, i32 0, i32 0
  %39 = load ptr, ptr %38, align 8, !tbaa !45
  %40 = load i32, ptr %5, align 4, !tbaa !33
  %41 = sext i32 %40 to i64
  %42 = getelementptr inbounds %struct._ir_insn, ptr %39, i64 %41
  %43 = getelementptr inbounds nuw %struct._ir_insn, ptr %42, i32 0, i32 0
  %44 = getelementptr inbounds nuw %struct.anon, ptr %43, i32 0, i32 0
  %45 = getelementptr inbounds nuw %struct.anon.0, ptr %44, i32 0, i32 0
  %46 = getelementptr inbounds nuw %struct.anon.2, ptr %45, i32 0, i32 0
  %47 = load i8, ptr %46, align 8, !tbaa !46
  %48 = zext i8 %47 to i32
  %49 = icmp eq i32 %48, 71
  br i1 %49, label %50, label %51

50:                                               ; preds = %36
  store i1 true, ptr %3, align 1
  store i32 1, ptr %7, align 4
  br label %53

51:                                               ; preds = %36
  br label %52

52:                                               ; preds = %51
  store i32 0, ptr %7, align 4
  br label %53

53:                                               ; preds = %52, %50, %35
  call void @llvm.lifetime.end.p0(i64 4, ptr %6) #10
  %54 = load i32, ptr %7, align 4
  switch i32 %54, label %59 [
    i32 0, label %55
    i32 1, label %57
  ]

55:                                               ; preds = %53
  br label %56

56:                                               ; preds = %55, %2
  store i1 false, ptr %3, align 1
  br label %57

57:                                               ; preds = %56, %53
  %58 = load i1, ptr %3, align 1
  ret i1 %58

59:                                               ; preds = %53
  unreachable
}

; Function Attrs: nounwind uwtable
define internal zeroext i1 @ir_is_dead(ptr noundef %0, i32 noundef %1) #0 {
  %3 = alloca i1, align 1
  %4 = alloca ptr, align 8
  %5 = alloca i32, align 4
  store ptr %0, ptr %4, align 8, !tbaa !4
  store i32 %1, ptr %5, align 4, !tbaa !33
  %6 = load ptr, ptr %4, align 8, !tbaa !4
  %7 = getelementptr inbounds nuw %struct._ir_ctx, ptr %6, i32 0, i32 13
  %8 = load ptr, ptr %7, align 8, !tbaa !47
  %9 = load i32, ptr %5, align 4, !tbaa !33
  %10 = sext i32 %9 to i64
  %11 = getelementptr inbounds %struct._ir_use_list, ptr %8, i64 %10
  %12 = getelementptr inbounds nuw %struct._ir_use_list, ptr %11, i32 0, i32 1
  %13 = load i32, ptr %12, align 4, !tbaa !48
  %14 = icmp eq i32 %13, 0
  br i1 %14, label %15, label %29

15:                                               ; preds = %2
  %16 = load ptr, ptr %4, align 8, !tbaa !4
  %17 = getelementptr inbounds nuw %struct._ir_ctx, ptr %16, i32 0, i32 0
  %18 = load ptr, ptr %17, align 8, !tbaa !45
  %19 = load i32, ptr %5, align 4, !tbaa !33
  %20 = sext i32 %19 to i64
  %21 = getelementptr inbounds %struct._ir_insn, ptr %18, i64 %20
  %22 = getelementptr inbounds nuw %struct._ir_insn, ptr %21, i32 0, i32 0
  %23 = getelementptr inbounds nuw %struct.anon, ptr %22, i32 0, i32 0
  %24 = getelementptr inbounds nuw %struct.anon.0, ptr %23, i32 0, i32 0
  %25 = getelementptr inbounds nuw %struct.anon.2, ptr %24, i32 0, i32 0
  %26 = load i8, ptr %25, align 8, !tbaa !46
  %27 = zext i8 %26 to i32
  %28 = icmp sle i32 %27, 60
  store i1 %28, ptr %3, align 1
  br label %33

29:                                               ; preds = %2
  %30 = load ptr, ptr %4, align 8, !tbaa !4
  %31 = load i32, ptr %5, align 4, !tbaa !33
  %32 = call zeroext i1 @ir_is_dead_load(ptr noundef %30, i32 noundef %31)
  store i1 %32, ptr %3, align 1
  br label %33

33:                                               ; preds = %29, %15
  %34 = load i1, ptr %3, align 1
  ret i1 %34
}