; Function Attrs: mustprogress nofree norecurse nosync nounwind willreturn memory(read, inaccessiblemem: none) uwtable
define internal fastcc zeroext i1 @ir_is_dead(ptr noundef readonly captures(none) %0, i32 noundef %1) unnamed_addr #7 {
  %3 = getelementptr inbounds nuw i8, ptr %0, i64 72
  %4 = load ptr, ptr %3, align 8, !tbaa !41
  %5 = sext i32 %1 to i64
  %6 = getelementptr inbounds %struct._ir_use_list, ptr %4, i64 %5, i32 1
  %7 = load i32, ptr %6, align 4, !tbaa !42
  switch i32 %7, label %23 [
    i32 0, label %8
    i32 1, label %13
  ]

8:                                                ; preds = %2
  %9 = load ptr, ptr %0, align 8, !tbaa !38
  %10 = getelementptr inbounds %struct._ir_insn, ptr %9, i64 %5
  %11 = load i8, ptr %10, align 8, !tbaa !39
  %12 = icmp ult i8 %11, 61
  br label %ir_is_dead_load.exit

13:                                               ; preds = %2
  %14 = load ptr, ptr %0, align 8, !tbaa !38
  %15 = getelementptr inbounds %struct._ir_insn, ptr %14, i64 %5
  %16 = load i8, ptr %15, align 8, !tbaa !39
  %17 = zext i8 %16 to i64
  %18 = getelementptr inbounds nuw [108 x i32], ptr @ir_op_flags, i64 0, i64 %17
  %19 = load i32, ptr %18, align 4, !tbaa !40
  %20 = and i32 %19, 1216
  %21 = icmp ne i32 %20, 1024
  %22 = icmp ne i8 %16, 71
  %or.cond.i = and i1 %22, %21
  br i1 %or.cond.i, label %23, label %ir_is_dead_load.exit

23:                                               ; preds = %2, %13
  br label %ir_is_dead_load.exit

ir_is_dead_load.exit:                             ; preds = %23, %13, %8
  %.0 = phi i1 [ %12, %8 ], [ false, %23 ], [ true, %13 ]
  ret i1 %.0
}